; ModuleID = '14/1276.c'
source_filename = "14/1276.c"
target datalayout = "e-m:e-p270:32:32-p271:32:32-p272:64:64-i64:64-f80:128-n8:16:32:64-S128"
target triple = "x86_64-pc-linux-gnu"

%struct.stu = type { i32, i32, i32, i32 }

@.str = private unnamed_addr constant [3 x i8] c"%d\00", align 1
@.str.1 = private unnamed_addr constant [9 x i8] c"%d %d %d\00", align 1
@.str.2 = private unnamed_addr constant [7 x i8] c"%d %d\0A\00", align 1

; Function Attrs: noinline nounwind uwtable
define dso_local i32 @main() #0 {
  %1 = alloca i32, align 4
  %2 = alloca %struct.stu*, align 8
  %3 = alloca %struct.stu, align 4
  %4 = alloca i32, align 4
  %5 = alloca i32, align 4
  %6 = alloca i32, align 4
  store i32 0, i32* %1, align 4
  %7 = call i32 (i8*, ...) @__isoc99_scanf(i8* getelementptr inbounds ([3 x i8], [3 x i8]* @.str, i64 0, i64 0), i32* %4)
  %8 = load i32, i32* %4, align 4
  %9 = sext i32 %8 to i64
  %10 = mul i64 %9, 16
  %11 = call noalias i8* @malloc(i64 %10) #4
  %12 = bitcast i8* %11 to %struct.stu*
  store %struct.stu* %12, %struct.stu** %2, align 8
  store i32 0, i32* %5, align 4
  br label %13

13:                                               ; preds = %52, %0
  %14 = load i32, i32* %5, align 4
  %15 = load i32, i32* %4, align 4
  %16 = icmp slt i32 %14, %15
  br i1 %16, label %17, label %55

17:                                               ; preds = %13
  %18 = load %struct.stu*, %struct.stu** %2, align 8
  %19 = load i32, i32* %5, align 4
  %20 = sext i32 %19 to i64
  %21 = getelementptr inbounds %struct.stu, %struct.stu* %18, i64 %20
  %22 = getelementptr inbounds %struct.stu, %struct.stu* %21, i32 0, i32 0
  %23 = load %struct.stu*, %struct.stu** %2, align 8
  %24 = load i32, i32* %5, align 4
  %25 = sext i32 %24 to i64
  %26 = getelementptr inbounds %struct.stu, %struct.stu* %23, i64 %25
  %27 = getelementptr inbounds %struct.stu, %struct.stu* %26, i32 0, i32 1
  %28 = load %struct.stu*, %struct.stu** %2, align 8
  %29 = load i32, i32* %5, align 4
  %30 = sext i32 %29 to i64
  %31 = getelementptr inbounds %struct.stu, %struct.stu* %28, i64 %30
  %32 = getelementptr inbounds %struct.stu, %struct.stu* %31, i32 0, i32 2
  %33 = call i32 (i8*, ...) @__isoc99_scanf(i8* getelementptr inbounds ([9 x i8], [9 x i8]* @.str.1, i64 0, i64 0), i32* %22, i32* %27, i32* %32)
  %34 = load %struct.stu*, %struct.stu** %2, align 8
  %35 = load i32, i32* %5, align 4
  %36 = sext i32 %35 to i64
  %37 = getelementptr inbounds %struct.stu, %struct.stu* %34, i64 %36
  %38 = getelementptr inbounds %struct.stu, %struct.stu* %37, i32 0, i32 1
  %39 = load i32, i32* %38, align 4
  %40 = load %struct.stu*, %struct.stu** %2, align 8
  %41 = load i32, i32* %5, align 4
  %42 = sext i32 %41 to i64
  %43 = getelementptr inbounds %struct.stu, %struct.stu* %40, i64 %42
  %44 = getelementptr inbounds %struct.stu, %struct.stu* %43, i32 0, i32 2
  %45 = load i32, i32* %44, align 4
  %46 = add nsw i32 %39, %45
  %47 = load %struct.stu*, %struct.stu** %2, align 8
  %48 = load i32, i32* %5, align 4
  %49 = sext i32 %48 to i64
  %50 = getelementptr inbounds %struct.stu, %struct.stu* %47, i64 %49
  %51 = getelementptr inbounds %struct.stu, %struct.stu* %50, i32 0, i32 3
  store i32 %46, i32* %51, align 4
  br label %52

52:                                               ; preds = %17
  %53 = load i32, i32* %5, align 4
  %54 = add nsw i32 %53, 1
  store i32 %54, i32* %5, align 4
  br label %13

55:                                               ; preds = %13
  store i32 0, i32* %6, align 4
  br label %56

56:                                               ; preds = %110, %55
  %57 = load i32, i32* %6, align 4
  %58 = icmp slt i32 %57, 3
  br i1 %58, label %59, label %113

59:                                               ; preds = %56
  %60 = load i32, i32* %4, align 4
  store i32 %60, i32* %5, align 4
  br label %61

61:                                               ; preds = %106, %59
  %62 = load i32, i32* %5, align 4
  %63 = load i32, i32* %6, align 4
  %64 = icmp sgt i32 %62, %63
  br i1 %64, label %65, label %109

65:                                               ; preds = %61
  %66 = load %struct.stu*, %struct.stu** %2, align 8
  %67 = load i32, i32* %5, align 4
  %68 = sext i32 %67 to i64
  %69 = getelementptr inbounds %struct.stu, %struct.stu* %66, i64 %68
  %70 = getelementptr inbounds %struct.stu, %struct.stu* %69, i32 0, i32 3
  %71 = load i32, i32* %70, align 4
  %72 = load %struct.stu*, %struct.stu** %2, align 8
  %73 = load i32, i32* %5, align 4
  %74 = sub nsw i32 %73, 1
  %75 = sext i32 %74 to i64
  %76 = getelementptr inbounds %struct.stu, %struct.stu* %72, i64 %75
  %77 = getelementptr inbounds %struct.stu, %struct.stu* %76, i32 0, i32 3
  %78 = load i32, i32* %77, align 4
  %79 = icmp sgt i32 %71, %78
  br i1 %79, label %80, label %105

80:                                               ; preds = %65
  %81 = load %struct.stu*, %struct.stu** %2, align 8
  %82 = load i32, i32* %5, align 4
  %83 = sext i32 %82 to i64
  %84 = getelementptr inbounds %struct.stu, %struct.stu* %81, i64 %83
  %85 = bitcast %struct.stu* %3 to i8*
  %86 = bitcast %struct.stu* %84 to i8*
  call void @llvm.memcpy.p0i8.p0i8.i64(i8* align 4 %85, i8* align 4 %86, i64 16, i1 false)
  %87 = load %struct.stu*, %struct.stu** %2, align 8
  %88 = load i32, i32* %5, align 4
  %89 = sext i32 %88 to i64
  %90 = getelementptr inbounds %struct.stu, %struct.stu* %87, i64 %89
  %91 = load %struct.stu*, %struct.stu** %2, align 8
  %92 = load i32, i32* %5, align 4
  %93 = sub nsw i32 %92, 1
  %94 = sext i32 %93 to i64
  %95 = getelementptr inbounds %struct.stu, %struct.stu* %91, i64 %94
  %96 = bitcast %struct.stu* %90 to i8*
  %97 = bitcast %struct.stu* %95 to i8*
  call void @llvm.memcpy.p0i8.p0i8.i64(i8* align 4 %96, i8* align 4 %97, i64 16, i1 false)
  %98 = load %struct.stu*, %struct.stu** %2, align 8
  %99 = load i32, i32* %5, align 4
  %100 = sub nsw i32 %99, 1
  %101 = sext i32 %100 to i64
  %102 = getelementptr inbounds %struct.stu, %struct.stu* %98, i64 %101
  %103 = bitcast %struct.stu* %102 to i8*
  %104 = bitcast %struct.stu* %3 to i8*
  call void @llvm.memcpy.p0i8.p0i8.i64(i8* align 4 %103, i8* align 4 %104, i64 16, i1 false)
  br label %105

105:                                              ; preds = %80, %65
  br label %106

106:                                              ; preds = %105
  %107 = load i32, i32* %5, align 4
  %108 = add nsw i32 %107, -1
  store i32 %108, i32* %5, align 4
  br label %61

109:                                              ; preds = %61
  br label %110

110:                                              ; preds = %109
  %111 = load i32, i32* %6, align 4
  %112 = add nsw i32 %111, 1
  store i32 %112, i32* %6, align 4
  br label %56

113:                                              ; preds = %56
  store i32 0, i32* %5, align 4
  br label %114

114:                                              ; preds = %131, %113
  %115 = load i32, i32* %5, align 4
  %116 = icmp slt i32 %115, 3
  br i1 %116, label %117, label %134

117:                                              ; preds = %114
  %118 = load %struct.stu*, %struct.stu** %2, align 8
  %119 = load i32, i32* %5, align 4
  %120 = sext i32 %119 to i64
  %121 = getelementptr inbounds %struct.stu, %struct.stu* %118, i64 %120
  %122 = getelementptr inbounds %struct.stu, %struct.stu* %121, i32 0, i32 0
  %123 = load i32, i32* %122, align 4
  %124 = load %struct.stu*, %struct.stu** %2, align 8
  %125 = load i32, i32* %5, align 4
  %126 = sext i32 %125 to i64
  %127 = getelementptr inbounds %struct.stu, %struct.stu* %124, i64 %126
  %128 = getelementptr inbounds %struct.stu, %struct.stu* %127, i32 0, i32 3
  %129 = load i32, i32* %128, align 4
  %130 = call i32 (i8*, ...) @printf(i8* getelementptr inbounds ([7 x i8], [7 x i8]* @.str.2, i64 0, i64 0), i32 %123, i32 %129)
  br label %131

131:                                              ; preds = %117
  %132 = load i32, i32* %5, align 4
  %133 = add nsw i32 %132, 1
  store i32 %133, i32* %5, align 4
  br label %114

134:                                              ; preds = %114
  ret i32 0
}

declare dso_local i32 @__isoc99_scanf(i8*, ...) #1

; Function Attrs: nounwind
declare dso_local noalias i8* @malloc(i64) #2

; Function Attrs: argmemonly nounwind willreturn
declare void @llvm.memcpy.p0i8.p0i8.i64(i8* noalias nocapture writeonly, i8* noalias nocapture readonly, i64, i1 immarg) #3

declare dso_local i32 @printf(i8*, ...) #1


!llvm.module.flags = !{!0}
!llvm.ident = !{!1}

!0 = !{i32 1, !"wchar_size", i32 4}
!1 = !{!"clang version 10.0.0-4ubuntu1 "}
